target datalayout = "e-m:e-p270:32:32-p271:32:32-p272:64:64-i64:64-i128:128-f80:128-n8:16:32:64-S128"
target triple = "x86_64-pc-linux-gnu"

%struct.AVTextFormatter = type { ptr, i32, ptr, ptr, ptr, ptr, ptr, ptr, ptr, i32 }
%struct.AVTextFormatContext = type { ptr, ptr, ptr, ptr, ptr, ptr, i32, i32, [12 x i32], [12 x [100 x i32]], [12 x ptr], [12 x %struct.AVBPrint], i32, i32, i32, i32, i32, ptr, i32, ptr, i32 }
%struct.AVBPrint = type { ptr, i32, i32, i32, [1 x i8], [1000 x i8] }
%struct.AVTextFormatSection = type { i32, ptr, i32, [12 x i32], ptr, ptr, ptr, ptr, i32, ptr, ptr, ptr, ptr }

@.str = private unnamed_addr constant [30 x i8] c"Assertion %s failed at %s:%d\0A\00", align 1
@.str.2 = private unnamed_addr constant [34 x i8] c"fftools/textformat/avtextformat.c\00", align 1
@.str.17 = private unnamed_addr constant [51 x i8] c"key && val && tctx->level >= 0 && tctx->level < 12\00", align 1
@.str.18 = private unnamed_addr constant [58 x i8] c"Invalid key=value string combination %s=%s in section %s\0A\00", align 1

; Function Attrs: nounwind uwtable
define i32 @avtext_print_string(ptr noundef %0, ptr noundef %1, ptr noundef %2, i32 noundef %3) #0 {
  %5 = alloca i32, align 4
  %6 = alloca ptr, align 8
  %7 = alloca ptr, align 8
  %8 = alloca ptr, align 8
  %9 = alloca i32, align 4
  %10 = alloca ptr, align 8
  %11 = alloca i32, align 4
  %12 = alloca i32, align 4
  %13 = alloca ptr, align 8
  %14 = alloca ptr, align 8
  store ptr %0, ptr %6, align 8, !tbaa !10
  store ptr %1, ptr %7, align 8, !tbaa !30
  store ptr %2, ptr %8, align 8, !tbaa !30
  store i32 %3, ptr %9, align 4, !tbaa !12
  call void @llvm.lifetime.start.p0(i64 8, ptr %10) #10
  call void @llvm.lifetime.start.p0(i64 4, ptr %11) #10
  store i32 0, ptr %11, align 4, !tbaa !12
  br label %15

15:                                               ; preds = %4
  %16 = load ptr, ptr %7, align 8, !tbaa !30
  %17 = icmp ne ptr %16, null
  br i1 %17, label %18, label %31

18:                                               ; preds = %15
  %19 = load ptr, ptr %8, align 8, !tbaa !30
  %20 = icmp ne ptr %19, null
  br i1 %20, label %21, label %31

21:                                               ; preds = %18
  %22 = load ptr, ptr %6, align 8, !tbaa !10
  %23 = getelementptr inbounds nuw %struct.AVTextFormatContext, ptr %22, i32 0, i32 7
  %24 = load i32, ptr %23, align 4, !tbaa !46
  %25 = icmp sge i32 %24, 0
  br i1 %25, label %26, label %31

26:                                               ; preds = %21
  %27 = load ptr, ptr %6, align 8, !tbaa !10
  %28 = getelementptr inbounds nuw %struct.AVTextFormatContext, ptr %27, i32 0, i32 7
  %29 = load i32, ptr %28, align 4, !tbaa !46
  %30 = icmp slt i32 %29, 12
  br i1 %30, label %32, label %31

31:                                               ; preds = %26, %21, %18, %15
  call void (ptr, i32, ptr, ...) @av_log(ptr noundef null, i32 noundef 0, ptr noundef @.str, ptr noundef @.str.17, ptr noundef @.str.2, i32 noundef 455)
  call void @abort() #11
  unreachable

32:                                               ; preds = %26
  br label %33

33:                                               ; preds = %32
  br label %34

34:                                               ; preds = %33
  %35 = load ptr, ptr %6, align 8, !tbaa !10
  %36 = getelementptr inbounds nuw %struct.AVTextFormatContext, ptr %35, i32 0, i32 10
  %37 = load ptr, ptr %6, align 8, !tbaa !10
  %38 = getelementptr inbounds nuw %struct.AVTextFormatContext, ptr %37, i32 0, i32 7
  %39 = load i32, ptr %38, align 4, !tbaa !46
  %40 = sext i32 %39 to i64
  %41 = getelementptr inbounds [12 x ptr], ptr %36, i64 0, i64 %40
  %42 = load ptr, ptr %41, align 8, !tbaa !31
  store ptr %42, ptr %10, align 8, !tbaa !31
  %43 = load ptr, ptr %6, align 8, !tbaa !10
  %44 = getelementptr inbounds nuw %struct.AVTextFormatContext, ptr %43, i32 0, i32 12
  %45 = load i32, ptr %44, align 8, !tbaa !45
  %46 = icmp eq i32 %45, 0
  br i1 %46, label %47, label %48

47:                                               ; preds = %34
  store i32 0, ptr %5, align 4
  store i32 1, ptr %12, align 4
  br label %139

48:                                               ; preds = %34
  %49 = load ptr, ptr %6, align 8, !tbaa !10
  %50 = getelementptr inbounds nuw %struct.AVTextFormatContext, ptr %49, i32 0, i32 12
  %51 = load i32, ptr %50, align 8, !tbaa !45
  %52 = icmp eq i32 %51, -1
  br i1 %52, label %53, label %66

53:                                               ; preds = %48
  %54 = load i32, ptr %9, align 4, !tbaa !12
  %55 = and i32 %54, 1
  %56 = icmp ne i32 %55, 0
  br i1 %56, label %57, label %66

57:                                               ; preds = %53
  %58 = load ptr, ptr %6, align 8, !tbaa !10
  %59 = getelementptr inbounds nuw %struct.AVTextFormatContext, ptr %58, i32 0, i32 1
  %60 = load ptr, ptr %59, align 8, !tbaa !14
  %61 = getelementptr inbounds nuw %struct.AVTextFormatter, ptr %60, i32 0, i32 9
  %62 = load i32, ptr %61, align 8, !tbaa !77
  %63 = and i32 %62, 1
  %64 = icmp ne i32 %63, 0
  br i1 %64, label %66, label %65

65:                                               ; preds = %57
  store i32 0, ptr %5, align 4
  store i32 1, ptr %12, align 4
  br label %139

66:                                               ; preds = %57, %53, %48
  %67 = load ptr, ptr %10, align 8, !tbaa !31
  %68 = getelementptr inbounds nuw %struct.AVTextFormatSection, ptr %67, i32 0, i32 8
  %69 = load i32, ptr %68, align 8, !tbaa !78
  %70 = icmp ne i32 %69, 0
  br i1 %70, label %78, label %71

71:                                               ; preds = %66
  %72 = load ptr, ptr %10, align 8, !tbaa !31
  %73 = getelementptr inbounds nuw %struct.AVTextFormatSection, ptr %72, i32 0, i32 6
  %74 = load ptr, ptr %73, align 8, !tbaa !79
  %75 = load ptr, ptr %7, align 8, !tbaa !30
  %76 = call ptr @av_dict_get(ptr noundef %74, ptr noundef %75, ptr noundef null, i32 noundef 0)
  %77 = icmp ne ptr %76, null
  br i1 %77, label %78, label %137

78:                                               ; preds = %71, %66
  %79 = load i32, ptr %9, align 4, !tbaa !12
  %80 = and i32 %79, 2
  %81 = icmp ne i32 %80, 0
  br i1 %81, label %82, label %118

82:                                               ; preds = %78
  call void @llvm.lifetime.start.p0(i64 8, ptr %13) #10
  store ptr null, ptr %13, align 8, !tbaa !30
  call void @llvm.lifetime.start.p0(i64 8, ptr %14) #10
  store ptr null, ptr %14, align 8, !tbaa !30
  %83 = load ptr, ptr %6, align 8, !tbaa !10
  %84 = load ptr, ptr %7, align 8, !tbaa !30
  %85 = call i32 @validate_string(ptr noundef %83, ptr noundef %13, ptr noundef %84)
  store i32 %85, ptr %11, align 4, !tbaa !12
  %86 = load i32, ptr %11, align 4, !tbaa !12
  %87 = icmp slt i32 %86, 0
  br i1 %87, label %88, label %89

88:                                               ; preds = %82
  br label %105

89:                                               ; preds = %82
  %90 = load ptr, ptr %6, align 8, !tbaa !10
  %91 = load ptr, ptr %8, align 8, !tbaa !30
  %92 = call i32 @validate_string(ptr noundef %90, ptr noundef %14, ptr noundef %91)
  store i32 %92, ptr %11, align 4, !tbaa !12
  %93 = load i32, ptr %11, align 4, !tbaa !12
  %94 = icmp slt i32 %93, 0
  br i1 %94, label %95, label %96

95:                                               ; preds = %89
  br label %105

96:                                               ; preds = %89
  %97 = load ptr, ptr %6, align 8, !tbaa !10
  %98 = getelementptr inbounds nuw %struct.AVTextFormatContext, ptr %97, i32 0, i32 1
  %99 = load ptr, ptr %98, align 8, !tbaa !14
  %100 = getelementptr inbounds nuw %struct.AVTextFormatter, ptr %99, i32 0, i32 8
  %101 = load ptr, ptr %100, align 8, !tbaa !83
  %102 = load ptr, ptr %6, align 8, !tbaa !10
  %103 = load ptr, ptr %13, align 8, !tbaa !30
  %104 = load ptr, ptr %14, align 8, !tbaa !30
  call void %101(ptr noundef %102, ptr noundef %103, ptr noundef %104)
  br label %105

105:                                              ; preds = %96, %95, %88
  %106 = load i32, ptr %11, align 4, !tbaa !12
  %107 = icmp slt i32 %106, 0
  br i1 %107, label %108, label %115

108:                                              ; preds = %105
  %109 = load ptr, ptr %6, align 8, !tbaa !10
  %110 = load ptr, ptr %7, align 8, !tbaa !30
  %111 = load ptr, ptr %8, align 8, !tbaa !30
  %112 = load ptr, ptr %10, align 8, !tbaa !31
  %113 = getelementptr inbounds nuw %struct.AVTextFormatSection, ptr %112, i32 0, i32 5
  %114 = load ptr, ptr %113, align 8, !tbaa !84
  call void (ptr, i32, ptr, ...) @av_log(ptr noundef %109, i32 noundef 16, ptr noundef @.str.18, ptr noundef %110, ptr noundef %111, ptr noundef %114)
  br label %115

115:                                              ; preds = %108, %105
  %116 = load ptr, ptr %13, align 8, !tbaa !30
  call void @av_free(ptr noundef %116)
  %117 = load ptr, ptr %14, align 8, !tbaa !30
  call void @av_free(ptr noundef %117)
  call void @llvm.lifetime.end.p0(i64 8, ptr %14) #10
  call void @llvm.lifetime.end.p0(i64 8, ptr %13) #10
  br label %127

118:                                              ; preds = %78
  %119 = load ptr, ptr %6, align 8, !tbaa !10
  %120 = getelementptr inbounds nuw %struct.AVTextFormatContext, ptr %119, i32 0, i32 1
  %121 = load ptr, ptr %120, align 8, !tbaa !14
  %122 = getelementptr inbounds nuw %struct.AVTextFormatter, ptr %121, i32 0, i32 8
  %123 = load ptr, ptr %122, align 8, !tbaa !83
  %124 = load ptr, ptr %6, align 8, !tbaa !10
  %125 = load ptr, ptr %7, align 8, !tbaa !30
  %126 = load ptr, ptr %8, align 8, !tbaa !30
  call void %123(ptr noundef %124, ptr noundef %125, ptr noundef %126)
  br label %127

127:                                              ; preds = %118, %115
  %128 = load ptr, ptr %6, align 8, !tbaa !10
  %129 = getelementptr inbounds nuw %struct.AVTextFormatContext, ptr %128, i32 0, i32 8
  %130 = load ptr, ptr %6, align 8, !tbaa !10
  %131 = getelementptr inbounds nuw %struct.AVTextFormatContext, ptr %130, i32 0, i32 7
  %132 = load i32, ptr %131, align 4, !tbaa !46
  %133 = sext i32 %132 to i64
  %134 = getelementptr inbounds [12 x i32], ptr %129, i64 0, i64 %133
  %135 = load i32, ptr %134, align 4, !tbaa !12
  %136 = add i32 %135, 1
  store i32 %136, ptr %134, align 4, !tbaa !12
  br label %137

137:                                              ; preds = %127, %71
  %138 = load i32, ptr %11, align 4, !tbaa !12
  store i32 %138, ptr %5, align 4
  store i32 1, ptr %12, align 4
  br label %139

139:                                              ; preds = %137, %65, %47
  call void @llvm.lifetime.end.p0(i64 4, ptr %11) #10
  call void @llvm.lifetime.end.p0(i64 8, ptr %10) #10
  %140 = load i32, ptr %5, align 4
  ret i32 %140
}