; Function Attrs: nounwind uwtable
define range(i32 -1094995529, 1) i32 @avtext_print_string(ptr noundef %0, ptr noundef %1, ptr noundef %2, i32 noundef %3) local_unnamed_addr #0 {
  %5 = alloca ptr, align 8
  %6 = alloca ptr, align 8
  %7 = icmp ne ptr %1, null
  %8 = icmp ne ptr %2, null
  %or.cond = and i1 %7, %8
  br i1 %or.cond, label %9, label %12

9:                                                ; preds = %4
  %10 = getelementptr inbounds nuw i8, ptr %0, i64 52
  %11 = load i32, ptr %10, align 4, !tbaa !38
  %or.cond47 = icmp ult i32 %11, 12
  br i1 %or.cond47, label %13, label %12

12:                                               ; preds = %9, %4
  tail call void (ptr, i32, ptr, ...) @av_log(ptr noundef null, i32 noundef 0, ptr noundef nonnull @.str, ptr noundef nonnull @.str.17, ptr noundef nonnull @.str.2, i32 noundef 455) #12
  tail call void @abort() #13
  unreachable

13:                                               ; preds = %9
  %14 = getelementptr inbounds nuw i8, ptr %0, i64 4904
  %15 = zext nneg i32 %11 to i64
  %16 = getelementptr inbounds nuw [12 x ptr], ptr %14, i64 0, i64 %15
  %17 = load ptr, ptr %16, align 8, !tbaa !60
  %18 = getelementptr inbounds nuw i8, ptr %0, i64 17288
  %19 = load i32, ptr %18, align 8, !tbaa !37
  switch i32 %19, label %28 [
    i32 0, label %68
    i32 -1, label %20
  ]

20:                                               ; preds = %13
  %21 = and i32 %3, 1
  %.not = icmp eq i32 %21, 0
  br i1 %.not, label %28, label %22

22:                                               ; preds = %20
  %23 = getelementptr inbounds nuw i8, ptr %0, i64 8
  %24 = load ptr, ptr %23, align 8, !tbaa !9
  %25 = getelementptr inbounds nuw i8, ptr %24, i64 72
  %26 = load i32, ptr %25, align 8, !tbaa !65
  %27 = and i32 %26, 1
  %.not43 = icmp eq i32 %27, 0
  br i1 %.not43, label %68, label %28

28:                                               ; preds = %13, %22, %20
  %29 = getelementptr inbounds nuw i8, ptr %17, i64 104
  %30 = load i32, ptr %29, align 8, !tbaa !66
  %.not44 = icmp eq i32 %30, 0
  br i1 %.not44, label %31, label %35

31:                                               ; preds = %28
  %32 = getelementptr inbounds nuw i8, ptr %17, i64 88
  %33 = load ptr, ptr %32, align 8, !tbaa !67
  %34 = tail call ptr @av_dict_get(ptr noundef %33, ptr noundef nonnull %1, ptr noundef null, i32 noundef 0) #12
  %.not45 = icmp eq ptr %34, null
  br i1 %.not45, label %68, label %35

35:                                               ; preds = %31, %28
  %36 = and i32 %3, 2
  %.not46 = icmp eq i32 %36, 0
  br i1 %.not46, label %56, label %37

37:                                               ; preds = %35
  call void @llvm.lifetime.start.p0(i64 8, ptr nonnull %5) #12
  store ptr null, ptr %5, align 8, !tbaa !51
  call void @llvm.lifetime.start.p0(i64 8, ptr nonnull %6) #12
  store ptr null, ptr %6, align 8, !tbaa !51
  %38 = call fastcc i32 @validate_string(ptr noundef nonnull %0, ptr noundef %5, ptr noundef %1)
  %39 = icmp slt i32 %38, 0
  br i1 %39, label %50, label %40

40:                                               ; preds = %37
  %41 = call fastcc i32 @validate_string(ptr noundef nonnull %0, ptr noundef %6, ptr noundef %2)
  %42 = icmp slt i32 %41, 0
  br i1 %42, label %50, label %43

43:                                               ; preds = %40
  %44 = getelementptr inbounds nuw i8, ptr %0, i64 8
  %45 = load ptr, ptr %44, align 8, !tbaa !9
  %46 = getelementptr inbounds nuw i8, ptr %45, i64 64
  %47 = load ptr, ptr %46, align 8, !tbaa !69
  %48 = load ptr, ptr %5, align 8, !tbaa !51
  %49 = load ptr, ptr %6, align 8, !tbaa !51
  call void %47(ptr noundef nonnull %0, ptr noundef %48, ptr noundef %49) #12
  br label %53

50:                                               ; preds = %37, %40
  %.1.ph = phi i32 [ %41, %40 ], [ %38, %37 ]
  %51 = getelementptr inbounds nuw i8, ptr %17, i64 80
  %52 = load ptr, ptr %51, align 8, !tbaa !70
  call void (ptr, i32, ptr, ...) @av_log(ptr noundef nonnull %0, i32 noundef 16, ptr noundef nonnull @.str.18, ptr noundef nonnull %1, ptr noundef nonnull %2, ptr noundef %52) #12
  br label %53

53:                                               ; preds = %43, %50
  %.149 = phi i32 [ %.1.ph, %50 ], [ 0, %43 ]
  %54 = load ptr, ptr %5, align 8, !tbaa !51
  call void @av_free(ptr noundef %54) #12
  %55 = load ptr, ptr %6, align 8, !tbaa !51
  call void @av_free(ptr noundef %55) #12
  call void @llvm.lifetime.end.p0(i64 8, ptr nonnull %6) #12
  call void @llvm.lifetime.end.p0(i64 8, ptr nonnull %5) #12
  br label %61

56:                                               ; preds = %35
  %57 = getelementptr inbounds nuw i8, ptr %0, i64 8
  %58 = load ptr, ptr %57, align 8, !tbaa !9
  %59 = getelementptr inbounds nuw i8, ptr %58, i64 64
  %60 = load ptr, ptr %59, align 8, !tbaa !69
  tail call void %60(ptr noundef nonnull %0, ptr noundef nonnull %1, ptr noundef nonnull %2) #12
  br label %61

61:                                               ; preds = %56, %53
  %.2 = phi i32 [ %.149, %53 ], [ 0, %56 ]
  %62 = getelementptr inbounds nuw i8, ptr %0, i64 56
  %63 = load i32, ptr %10, align 4, !tbaa !38
  %64 = sext i32 %63 to i64
  %65 = getelementptr inbounds [12 x i32], ptr %62, i64 0, i64 %64
  %66 = load i32, ptr %65, align 4, !tbaa !59
  %67 = add i32 %66, 1
  store i32 %67, ptr %65, align 4, !tbaa !59
  br label %68

68:                                               ; preds = %31, %61, %22, %13
  %.035 = phi i32 [ %19, %13 ], [ 0, %22 ], [ %.2, %61 ], [ 0, %31 ]
  ret i32 %.035
}